target datalayout = "e-m:e-p270:32:32-p271:32:32-p272:64:64-i64:64-i128:128-f80:128-n8:16:32:64-S128"
target triple = "x86_64-pc-linux-gnu"

%struct.archive_read = type { %struct.archive, ptr, i32, i64, i64, %struct.archive_read_client, [16 x %struct.archive_read_filter_bidder], ptr, i32, i64, i32, i32, [16 x %struct.archive_format_descriptor], ptr, ptr, ptr, %struct.anon }
%struct.archive = type { i32, i32, ptr, i32, ptr, i32, i32, ptr, %struct.archive_string, ptr, i32, i32, ptr, ptr, i64, i64, i64, i8, i64 }
%struct.archive_string = type { ptr, i64, i64 }
%struct.archive_read_client = type { ptr, ptr, ptr, ptr, ptr, ptr, i32, i32, i64, ptr }
%struct.archive_read_filter_bidder = type { ptr, ptr, ptr }
%struct.archive_format_descriptor = type { ptr, ptr, ptr, ptr, ptr, ptr, ptr, ptr, ptr, ptr, ptr }
%struct.anon = type { ptr, ptr, i32, ptr, ptr }

@.str.111 = private unnamed_addr constant [5 x i8] c"PK\05\06\00", align 1
@.str.112 = private unnamed_addr constant [5 x i8] c"PK\06\07\00", align 1

; Function Attrs: nounwind uwtable
define internal i32 @archive_read_format_zip_seekable_bid(ptr noundef %0, i32 noundef %1) #0 {
  %3 = alloca i32, align 4
  %4 = alloca ptr, align 8
  %5 = alloca i32, align 4
  %6 = alloca ptr, align 8
  %7 = alloca i64, align 8
  %8 = alloca i64, align 8
  %9 = alloca ptr, align 8
  %10 = alloca i32, align 4
  %11 = alloca i32, align 4
  %12 = alloca i32, align 4
  %13 = alloca i32, align 4
  %14 = alloca i32, align 4
  store ptr %0, ptr %4, align 8, !tbaa !11
  store i32 %1, ptr %5, align 4, !tbaa !9
  call void @llvm.lifetime.start.p0(i64 8, ptr %6) #11
  %15 = load ptr, ptr %4, align 8, !tbaa !11
  %16 = getelementptr inbounds nuw %struct.archive_read, ptr %15, i32 0, i32 13
  %17 = load ptr, ptr %16, align 8, !tbaa !47
  %18 = getelementptr inbounds nuw %struct.archive_format_descriptor, ptr %17, i32 0, i32 0
  %19 = load ptr, ptr %18, align 8, !tbaa !60
  store ptr %19, ptr %6, align 8, !tbaa !13
  call void @llvm.lifetime.start.p0(i64 8, ptr %7) #11
  call void @llvm.lifetime.start.p0(i64 8, ptr %8) #11
  call void @llvm.lifetime.start.p0(i64 8, ptr %9) #11
  call void @llvm.lifetime.start.p0(i64 4, ptr %10) #11
  call void @llvm.lifetime.start.p0(i64 4, ptr %11) #11
  %20 = load i32, ptr %5, align 4, !tbaa !9
  %21 = icmp sgt i32 %20, 32
  br i1 %21, label %22, label %23

22:                                               ; preds = %2
  store i32 -1, ptr %3, align 4
  store i32 1, ptr %12, align 4
  br label %128

23:                                               ; preds = %2
  %24 = load ptr, ptr %4, align 8, !tbaa !11
  %25 = call i64 @__archive_read_seek(ptr noundef %24, i64 noundef 0, i32 noundef 2)
  store i64 %25, ptr %7, align 8, !tbaa !43
  %26 = load i64, ptr %7, align 8, !tbaa !43
  %27 = icmp sle i64 %26, 0
  br i1 %27, label %28, label %29

28:                                               ; preds = %23
  store i32 0, ptr %3, align 4
  store i32 1, ptr %12, align 4
  br label %128

29:                                               ; preds = %23
  %30 = load i64, ptr %7, align 8, !tbaa !43
  %31 = icmp slt i64 16384, %30
  br i1 %31, label %32, label %33

32:                                               ; preds = %29
  br label %35

33:                                               ; preds = %29
  %34 = load i64, ptr %7, align 8, !tbaa !43
  br label %35

35:                                               ; preds = %33, %32
  %36 = phi i64 [ 16384, %32 ], [ %34, %33 ]
  %37 = trunc i64 %36 to i32
  store i32 %37, ptr %11, align 4, !tbaa !9
  %38 = load ptr, ptr %4, align 8, !tbaa !11
  %39 = load i32, ptr %11, align 4, !tbaa !9
  %40 = sub nsw i32 0, %39
  %41 = sext i32 %40 to i64
  %42 = call i64 @__archive_read_seek(ptr noundef %38, i64 noundef %41, i32 noundef 2)
  store i64 %42, ptr %8, align 8, !tbaa !43
  %43 = load i64, ptr %8, align 8, !tbaa !43
  %44 = icmp slt i64 %43, 0
  br i1 %44, label %45, label %46

45:                                               ; preds = %35
  store i32 0, ptr %3, align 4
  store i32 1, ptr %12, align 4
  br label %128

46:                                               ; preds = %35
  %47 = load ptr, ptr %4, align 8, !tbaa !11
  %48 = load i32, ptr %11, align 4, !tbaa !9
  %49 = sext i32 %48 to i64
  %50 = call ptr @__archive_read_ahead(ptr noundef %47, i64 noundef %49, ptr noundef null)
  store ptr %50, ptr %9, align 8, !tbaa !45
  %51 = icmp eq ptr %50, null
  br i1 %51, label %52, label %53

52:                                               ; preds = %46
  store i32 0, ptr %3, align 4
  store i32 1, ptr %12, align 4
  br label %128

53:                                               ; preds = %46
  %54 = load i32, ptr %11, align 4, !tbaa !9
  %55 = sub nsw i32 %54, 22
  store i32 %55, ptr %10, align 4, !tbaa !9
  br label %56

56:                                               ; preds = %126, %53
  %57 = load i32, ptr %10, align 4, !tbaa !9
  %58 = icmp sgt i32 %57, 0
  br i1 %58, label %59, label %127

59:                                               ; preds = %56
  %60 = load ptr, ptr %9, align 8, !tbaa !45
  %61 = load i32, ptr %10, align 4, !tbaa !9
  %62 = sext i32 %61 to i64
  %63 = getelementptr inbounds i8, ptr %60, i64 %62
  %64 = load i8, ptr %63, align 1, !tbaa !46
  %65 = sext i8 %64 to i32
  switch i32 %65, label %123 [
    i32 80, label %66
    i32 75, label %114
    i32 5, label %117
    i32 6, label %120
  ]

66:                                               ; preds = %59
  %67 = load ptr, ptr %9, align 8, !tbaa !45
  %68 = load i32, ptr %10, align 4, !tbaa !9
  %69 = sext i32 %68 to i64
  %70 = getelementptr inbounds i8, ptr %67, i64 %69
  %71 = call i32 @memcmp(ptr noundef %70, ptr noundef @.str.111, i64 noundef 4) #13
  %72 = icmp eq i32 %71, 0
  br i1 %72, label %73, label %111

73:                                               ; preds = %66
  call void @llvm.lifetime.start.p0(i64 4, ptr %13) #11
  %74 = load ptr, ptr %6, align 8, !tbaa !13
  %75 = load ptr, ptr %9, align 8, !tbaa !45
  %76 = load i32, ptr %10, align 4, !tbaa !9
  %77 = sext i32 %76 to i64
  %78 = getelementptr inbounds i8, ptr %75, i64 %77
  %79 = load i64, ptr %8, align 8, !tbaa !43
  %80 = load i32, ptr %10, align 4, !tbaa !9
  %81 = sext i32 %80 to i64
  %82 = add nsw i64 %79, %81
  %83 = call i32 @read_eocd(ptr noundef %74, ptr noundef %78, i64 noundef %82)
  store i32 %83, ptr %13, align 4, !tbaa !9
  %84 = load i32, ptr %10, align 4, !tbaa !9
  %85 = icmp sge i32 %84, 20
  br i1 %85, label %86, label %109

86:                                               ; preds = %73
  %87 = load ptr, ptr %9, align 8, !tbaa !45
  %88 = load i32, ptr %10, align 4, !tbaa !9
  %89 = sext i32 %88 to i64
  %90 = getelementptr inbounds i8, ptr %87, i64 %89
  %91 = getelementptr inbounds i8, ptr %90, i64 -20
  %92 = call i32 @memcmp(ptr noundef %91, ptr noundef @.str.112, i64 noundef 4) #13
  %93 = icmp eq i32 %92, 0
  br i1 %93, label %94, label %109

94:                                               ; preds = %86
  call void @llvm.lifetime.start.p0(i64 4, ptr %14) #11
  %95 = load ptr, ptr %4, align 8, !tbaa !11
  %96 = load ptr, ptr %6, align 8, !tbaa !13
  %97 = load ptr, ptr %9, align 8, !tbaa !45
  %98 = load i32, ptr %10, align 4, !tbaa !9
  %99 = sext i32 %98 to i64
  %100 = getelementptr inbounds i8, ptr %97, i64 %99
  %101 = getelementptr inbounds i8, ptr %100, i64 -20
  %102 = call i32 @read_zip64_eocd(ptr noundef %95, ptr noundef %96, ptr noundef %101)
  store i32 %102, ptr %14, align 4, !tbaa !9
  %103 = load i32, ptr %14, align 4, !tbaa !9
  %104 = load i32, ptr %13, align 4, !tbaa !9
  %105 = icmp sgt i32 %103, %104
  br i1 %105, label %106, label %108

106:                                              ; preds = %94
  %107 = load i32, ptr %14, align 4, !tbaa !9
  store i32 %107, ptr %13, align 4, !tbaa !9
  br label %108

108:                                              ; preds = %106, %94
  call void @llvm.lifetime.end.p0(i64 4, ptr %14) #11
  br label %109

109:                                              ; preds = %108, %86, %73
  %110 = load i32, ptr %13, align 4, !tbaa !9
  store i32 %110, ptr %3, align 4
  store i32 1, ptr %12, align 4
  call void @llvm.lifetime.end.p0(i64 4, ptr %13) #11
  br label %128

111:                                              ; preds = %66
  %112 = load i32, ptr %10, align 4, !tbaa !9
  %113 = sub nsw i32 %112, 4
  store i32 %113, ptr %10, align 4, !tbaa !9
  br label %126

114:                                              ; preds = %59
  %115 = load i32, ptr %10, align 4, !tbaa !9
  %116 = sub nsw i32 %115, 1
  store i32 %116, ptr %10, align 4, !tbaa !9
  br label %126

117:                                              ; preds = %59
  %118 = load i32, ptr %10, align 4, !tbaa !9
  %119 = sub nsw i32 %118, 2
  store i32 %119, ptr %10, align 4, !tbaa !9
  br label %126

120:                                              ; preds = %59
  %121 = load i32, ptr %10, align 4, !tbaa !9
  %122 = sub nsw i32 %121, 3
  store i32 %122, ptr %10, align 4, !tbaa !9
  br label %126

123:                                              ; preds = %59
  %124 = load i32, ptr %10, align 4, !tbaa !9
  %125 = sub nsw i32 %124, 4
  store i32 %125, ptr %10, align 4, !tbaa !9
  br label %126

126:                                              ; preds = %123, %120, %117, %114, %111
  br label %56, !llvm.loop !118

127:                                              ; preds = %56
  store i32 0, ptr %3, align 4
  store i32 1, ptr %12, align 4
  br label %128

128:                                              ; preds = %127, %109, %52, %45, %28, %22
  call void @llvm.lifetime.end.p0(i64 4, ptr %11) #11
  call void @llvm.lifetime.end.p0(i64 4, ptr %10) #11
  call void @llvm.lifetime.end.p0(i64 8, ptr %9) #11
  call void @llvm.lifetime.end.p0(i64 8, ptr %8) #11
  call void @llvm.lifetime.end.p0(i64 8, ptr %7) #11
  call void @llvm.lifetime.end.p0(i64 8, ptr %6) #11
  %129 = load i32, ptr %3, align 4
  ret i32 %129
}