; Function Attrs: nounwind uwtable
define internal range(i32 -1, 33) i32 @archive_read_format_zip_seekable_bid(ptr noundef %0, i32 noundef %1) #0 {
  %3 = getelementptr inbounds nuw i8, ptr %0, i64 2072
  %4 = load ptr, ptr %3, align 8, !tbaa !37
  %5 = load ptr, ptr %4, align 8, !tbaa !50
  %6 = icmp sgt i32 %1, 32
  br i1 %6, label %.loopexit, label %7

7:                                                ; preds = %2
  %8 = tail call i64 @__archive_read_seek(ptr noundef nonnull %0, i64 noundef 0, i32 noundef 2) #21
  %9 = icmp slt i64 %8, 1
  br i1 %9, label %.loopexit, label %10

10:                                               ; preds = %7
  %11 = tail call i64 @llvm.umin.i64(i64 %8, i64 16384)
  %.neg = mul nsw i64 %11, -4294967296
  %12 = ashr exact i64 %.neg, 32
  %13 = tail call i64 @__archive_read_seek(ptr noundef nonnull %0, i64 noundef %12, i32 noundef 2) #21
  %14 = icmp slt i64 %13, 0
  br i1 %14, label %.loopexit, label %15

15:                                               ; preds = %10
  %16 = tail call ptr @__archive_read_ahead(ptr noundef nonnull %0, i64 noundef %11, ptr noundef null) #21
  %17 = icmp ne ptr %16, null
  %18 = icmp samesign ugt i64 %8, 22
  %or.cond = and i1 %17, %18
  br i1 %or.cond, label %.lr.ph.preheader, label %.loopexit

.lr.ph.preheader:                                 ; preds = %15
  %19 = trunc nuw nsw i64 %11 to i32
  %20 = add nsw i32 %19, -22
  br label %.lr.ph

.lr.ph:                                           ; preds = %.lr.ph.preheader, %38
  %.03949 = phi i32 [ %39, %38 ], [ %20, %.lr.ph.preheader ]
  %21 = zext nneg i32 %.03949 to i64
  %22 = getelementptr inbounds nuw i8, ptr %16, i64 %21
  %23 = load i8, ptr %22, align 1, !tbaa !36
  switch i8 %23, label %37 [
    i8 80, label %24
    i8 75, label %38
    i8 5, label %35
    i8 6, label %36
  ]

24:                                               ; preds = %.lr.ph
  %bcmp = tail call i32 @bcmp(ptr noundef nonnull dereferenceable(4) %22, ptr noundef nonnull dereferenceable(4) @.str.111, i64 4)
  %25 = icmp eq i32 %bcmp, 0
  br i1 %25, label %26, label %38

26:                                               ; preds = %24
  %27 = add nuw nsw i64 %13, %21
  %28 = tail call fastcc i32 @read_eocd(ptr noundef %5, ptr noundef %22, i64 noundef %27)
  %29 = icmp samesign ugt i32 %.03949, 19
  br i1 %29, label %30, label %.loopexit

30:                                               ; preds = %26
  %31 = getelementptr inbounds i8, ptr %22, i64 -20
  %bcmp46 = tail call i32 @bcmp(ptr noundef nonnull dereferenceable(4) %31, ptr noundef nonnull dereferenceable(4) @.str.112, i64 4)
  %32 = icmp eq i32 %bcmp46, 0
  br i1 %32, label %33, label %.loopexit

33:                                               ; preds = %30
  %34 = tail call fastcc i32 @read_zip64_eocd(ptr noundef nonnull %0, ptr noundef %5, ptr noundef %31)
  %spec.select = tail call i32 @llvm.umax.i32(i32 %34, i32 %28)
  br label %.loopexit

35:                                               ; preds = %.lr.ph
  br label %38

36:                                               ; preds = %.lr.ph
  br label %38

37:                                               ; preds = %.lr.ph
  br label %38

38:                                               ; preds = %.lr.ph, %24, %37, %36, %35
  %.sink = phi i32 [ -4, %37 ], [ -3, %36 ], [ -2, %35 ], [ -4, %24 ], [ -1, %.lr.ph ]
  %39 = add nsw i32 %.03949, %.sink
  %40 = icmp sgt i32 %39, 0
  br i1 %40, label %.lr.ph, label %.loopexit, !llvm.loop !111

.loopexit:                                        ; preds = %38, %26, %30, %33, %15, %10, %7, %2
  %.0 = phi i32 [ -1, %2 ], [ 0, %7 ], [ 0, %10 ], [ 0, %15 ], [ %spec.select, %33 ], [ %28, %30 ], [ %28, %26 ], [ 0, %38 ]
  ret i32 %.0
}